; Function Attrs: mustprogress uwtable
define dso_local noundef ptr @_ZN4Luau8DefArena9freshCellEb(ptr noundef nonnull align 8 dereferenceable(40) %0, i1 noundef zeroext %1) local_unnamed_addr #2 align 2 personality ptr @__gxx_personality_v0 {
  %3 = alloca %"struct.Luau::Def", align 8
  %4 = zext i1 %1 to i8
  call void @llvm.lifetime.start.p0(i64 32, ptr nonnull %3) #20
  store i32 0, ptr %3, align 8, !tbaa !4
  %5 = getelementptr inbounds nuw i8, ptr %3, i64 8
  store i8 %4, ptr %5, align 8, !tbaa !39
  %6 = getelementptr inbounds nuw i8, ptr %0, i64 32
  %7 = load i64, ptr %6, align 8, !tbaa !40
  %8 = icmp ugt i64 %7, 1023
  br i1 %8, label %9, label %10

9:                                                ; preds = %2
  invoke void @_ZN4Luau14TypedAllocatorINS_3DefEE11appendBlockEv(ptr noundef nonnull align 8 dereferenceable(40) %0)
          to label %.noexc unwind label %32

.noexc:                                           ; preds = %9
  %.pre.i = load i64, ptr %6, align 8, !tbaa !40
  %.pre = load i32, ptr %3, align 8, !tbaa !4
  br label %10

10:                                               ; preds = %.noexc, %2
  %11 = phi i32 [ %.pre, %.noexc ], [ 0, %2 ]
  %12 = phi i64 [ %.pre.i, %.noexc ], [ %7, %2 ]
  %13 = getelementptr inbounds nuw i8, ptr %0, i64 16
  %14 = load ptr, ptr %13, align 8, !tbaa !49
  %15 = getelementptr inbounds i8, ptr %14, i64 -8
  %16 = load ptr, ptr %15, align 8, !tbaa !17
  %17 = getelementptr inbounds nuw %"struct.Luau::Def", ptr %16, i64 %12
  store i32 %11, ptr %17, align 8, !tbaa !4
  %18 = sext i32 %11 to i64
  %19 = getelementptr inbounds [2 x ptr], ptr @_ZN4Luau7VariantIJNS_4CellENS_3PhiEEE9tableMoveE, i64 0, i64 %18
  %20 = load ptr, ptr %19, align 8, !tbaa !50
  %21 = getelementptr inbounds nuw i8, ptr %17, i64 8
  invoke void %20(ptr noundef nonnull %21, ptr noundef nonnull %5)
          to label %22 unwind label %32

22:                                               ; preds = %10
  %23 = load i64, ptr %6, align 8, !tbaa !40
  %24 = add i64 %23, 1
  store i64 %24, ptr %6, align 8, !tbaa !40
  %25 = load i32, ptr %3, align 8, !tbaa !4
  %26 = sext i32 %25 to i64
  %27 = getelementptr inbounds [2 x ptr], ptr @_ZN4Luau7VariantIJNS_4CellENS_3PhiEEE9tableDtorE, i64 0, i64 %26
  %28 = load ptr, ptr %27, align 8, !tbaa !50
  invoke void %28(ptr noundef nonnull %5)
          to label %_ZN4Luau3DefD2Ev.exit unwind label %29

29:                                               ; preds = %22
  %30 = landingpad { ptr, i32 }
          catch ptr null
  %31 = extractvalue { ptr, i32 } %30, 0
  call void @__clang_call_terminate(ptr %31) #21
  unreachable

_ZN4Luau3DefD2Ev.exit:                            ; preds = %22
  call void @llvm.lifetime.end.p0(i64 32, ptr nonnull %3) #20
  ret ptr %17

32:                                               ; preds = %10, %9
  %33 = landingpad { ptr, i32 }
          cleanup
  %34 = load i32, ptr %3, align 8, !tbaa !4
  %35 = sext i32 %34 to i64
  %36 = getelementptr inbounds [2 x ptr], ptr @_ZN4Luau7VariantIJNS_4CellENS_3PhiEEE9tableDtorE, i64 0, i64 %35
  %37 = load ptr, ptr %36, align 8, !tbaa !50
  invoke void %37(ptr noundef nonnull %5)
          to label %_ZN4Luau3DefD2Ev.exit4 unwind label %38

38:                                               ; preds = %32
  %39 = landingpad { ptr, i32 }
          catch ptr null
  %40 = extractvalue { ptr, i32 } %39, 0
  call void @__clang_call_terminate(ptr %40) #21
  unreachable

_ZN4Luau3DefD2Ev.exit4:                           ; preds = %32
  call void @llvm.lifetime.end.p0(i64 32, ptr nonnull %3) #20
  resume { ptr, i32 } %33
}